; Function Attrs: mustprogress uwtable
define void @_ZN24json11_internal_lightgbm4JsonC2ERKSt6vectorIS0_SaIS0_EE(ptr nocapture noundef nonnull writeonly align 8 dereferenceable(16) %0, ptr noundef nonnull align 8 dereferenceable(24) %1) unnamed_addr #1 align 2 personality ptr @__gxx_personality_v0 {
_ZNSt10shared_ptrIN24json11_internal_lightgbm9JsonArrayEED2Ev.exit:
  %2 = alloca %"class.std::allocator.12", align 1
  %3 = alloca %"class.std::shared_ptr.57", align 16
  call void @llvm.lifetime.start.p0(i64 1, ptr nonnull %2)
  store ptr null, ptr %3, align 16, !alias.scope !38
  %4 = getelementptr inbounds i8, ptr %3, i64 8
  call void @_ZNSt14__shared_countILN9__gnu_cxx12_Lock_policyE2EEC2IN24json11_internal_lightgbm9JsonArrayESaIvEJRKSt6vectorINS4_4JsonESaIS8_EEEEERPT_St20_Sp_alloc_shared_tagIT0_EDpOT1_(ptr noundef nonnull align 8 dereferenceable(8) %4, ptr noundef nonnull align 8 dereferenceable(8) %3, ptr nonnull %2, ptr noundef nonnull align 8 dereferenceable(24) %1)
  call void @llvm.lifetime.end.p0(i64 1, ptr nonnull %2)
  %5 = load <2 x ptr>, ptr %3, align 16
  store <2 x ptr> %5, ptr %0, align 8
  ret void
}